target datalayout = "e-m:e-p270:32:32-p271:32:32-p272:64:64-i64:64-i128:128-f80:128-n8:16:32:64-S128"
target triple = "x86_64-unknown-linux-gnu"

%class.maximize_ac_sharing = type { ptr, ptr, i8, %class.region, %class.ptr_hashtable, %class.ptr_vector, %class.svector, %class.svector.1 }
%class.region = type { ptr, ptr, ptr, ptr, ptr }
%class.ptr_hashtable = type { %class.core_hashtable.base, [4 x i8] }
%class.core_hashtable.base = type <{ ptr, i32, i32, i32 }>
%class.ptr_vector = type { %class.vector }
%class.vector = type { ptr }
%class.svector = type { %class.vector.0 }
%class.vector.0 = type { ptr }
%class.svector.1 = type { %class.vector.2 }
%class.vector.2 = type { ptr }
%class.ast = type { i32, i24, i32, i32 }
%"struct.maximize_ac_sharing::entry" = type { ptr, ptr, ptr }

; Function Attrs: mustprogress nounwind uwtable
define linkonce_odr hidden void @_ZSt4swapIP4exprENSt9enable_ifIXsr6__and_ISt6__not_ISt15__is_tuple_likeIT_EESt21is_move_constructibleIS5_ESt18is_move_assignableIS5_EEE5valueEvE4typeERS5_SE_(ptr noundef nonnull align 8 dereferenceable(8) %__a, ptr noundef nonnull align 8 dereferenceable(8) %__b) #5 comdat {
entry:
  %__a.addr = alloca ptr, align 8
  %__b.addr = alloca ptr, align 8
  %__tmp = alloca ptr, align 8
  store ptr %__a, ptr %__a.addr, align 8
  store ptr %__b, ptr %__b.addr, align 8
  %0 = load ptr, ptr %__a.addr, align 8
  %1 = load ptr, ptr %0, align 8
  store ptr %1, ptr %__tmp, align 8
  %2 = load ptr, ptr %__b.addr, align 8
  %3 = load ptr, ptr %2, align 8
  %4 = load ptr, ptr %__a.addr, align 8
  store ptr %3, ptr %4, align 8
  %5 = load ptr, ptr %__tmp, align 8
  %6 = load ptr, ptr %__b.addr, align 8
  store ptr %5, ptr %6, align 8
  ret void
}

; Function Attrs: mustprogress nounwind uwtable
define linkonce_odr hidden noundef i32 @_ZNK3ast6get_idEv(ptr noundef nonnull align 4 dereferenceable(16) %this) #5 comdat align 2 {
entry:
  %this.addr = alloca ptr, align 8
  store ptr %this, ptr %this.addr, align 8
  %this1 = load ptr, ptr %this.addr, align 8
  %m_id = getelementptr inbounds %class.ast, ptr %this1, i32 0, i32 0
  %0 = load i32, ptr %m_id, align 4
  ret i32 %0
}

; Function Attrs: mustprogress uwtable
define linkonce_odr hidden noundef zeroext i1 @_ZNK14core_hashtableI14ptr_hash_entryIN19maximize_ac_sharing5entryEE12obj_ptr_hashIS2_E8deref_eqIS2_EE8containsERKPS2_(ptr noundef nonnull align 8 dereferenceable(20) %this, ptr noundef nonnull align 8 dereferenceable(8) %e) #4 comdat align 2 {
entry:
  %this.addr = alloca ptr, align 8
  %e.addr = alloca ptr, align 8
  store ptr %this, ptr %this.addr, align 8
  store ptr %e, ptr %e.addr, align 8
  %this1 = load ptr, ptr %this.addr, align 8
  %0 = load ptr, ptr %e.addr, align 8
  %call = call noundef ptr @_ZNK14core_hashtableI14ptr_hash_entryIN19maximize_ac_sharing5entryEE12obj_ptr_hashIS2_E8deref_eqIS2_EE9find_coreERKPS2_(ptr noundef nonnull align 8 dereferenceable(20) %this1, ptr noundef nonnull align 8 dereferenceable(8) %0)
  %cmp = icmp ne ptr %call, null
  ret i1 %cmp
}

; Function Attrs: mustprogress uwtable
define linkonce_odr hidden void @_ZN19maximize_ac_sharing5entryC2EP9func_declP4exprS4_(ptr noundef nonnull align 8 dereferenceable(24) %this, ptr noundef %d, ptr noundef %arg1, ptr noundef %arg2) unnamed_addr #4 comdat align 2 {
entry:
  %this.addr = alloca ptr, align 8
  %d.addr = alloca ptr, align 8
  %arg1.addr = alloca ptr, align 8
  %arg2.addr = alloca ptr, align 8
  store ptr %this, ptr %this.addr, align 8
  store ptr %d, ptr %d.addr, align 8
  store ptr %arg1, ptr %arg1.addr, align 8
  store ptr %arg2, ptr %arg2.addr, align 8
  %this1 = load ptr, ptr %this.addr, align 8
  %m_decl = getelementptr inbounds %"struct.maximize_ac_sharing::entry", ptr %this1, i32 0, i32 0
  %0 = load ptr, ptr %d.addr, align 8
  store ptr %0, ptr %m_decl, align 8
  %m_arg1 = getelementptr inbounds %"struct.maximize_ac_sharing::entry", ptr %this1, i32 0, i32 1
  %1 = load ptr, ptr %arg1.addr, align 8
  store ptr %1, ptr %m_arg1, align 8
  %m_arg2 = getelementptr inbounds %"struct.maximize_ac_sharing::entry", ptr %this1, i32 0, i32 2
  %2 = load ptr, ptr %arg2.addr, align 8
  store ptr %2, ptr %m_arg2, align 8
  %3 = load ptr, ptr %arg1.addr, align 8
  %tobool = icmp ne ptr %3, null
  br i1 %tobool, label %land.lhs.true, label %if.end

land.lhs.true:                                    ; preds = %entry
  %4 = load ptr, ptr %arg2.addr, align 8
  %tobool2 = icmp ne ptr %4, null
  br i1 %tobool2, label %land.lhs.true3, label %if.end

land.lhs.true3:                                   ; preds = %land.lhs.true
  %5 = load ptr, ptr %arg1.addr, align 8
  %call = call noundef i32 @_ZNK3ast6get_idEv(ptr noundef nonnull align 4 dereferenceable(16) %5)
  %6 = load ptr, ptr %arg2.addr, align 8
  %call4 = call noundef i32 @_ZNK3ast6get_idEv(ptr noundef nonnull align 4 dereferenceable(16) %6)
  %cmp = icmp ugt i32 %call, %call4
  br i1 %cmp, label %if.then, label %if.end

if.then:                                          ; preds = %land.lhs.true3
  %m_arg15 = getelementptr inbounds %"struct.maximize_ac_sharing::entry", ptr %this1, i32 0, i32 1
  %m_arg26 = getelementptr inbounds %"struct.maximize_ac_sharing::entry", ptr %this1, i32 0, i32 2
  call void @_ZSt4swapIP4exprENSt9enable_ifIXsr6__and_ISt6__not_ISt15__is_tuple_likeIT_EESt21is_move_constructibleIS5_ESt18is_move_assignableIS5_EEE5valueEvE4typeERS5_SE_(ptr noundef nonnull align 8 dereferenceable(8) %m_arg15, ptr noundef nonnull align 8 dereferenceable(8) %m_arg26) #3
  br label %if.end

if.end:                                           ; preds = %if.then, %land.lhs.true3, %land.lhs.true, %entry
  ret void
}

; Function Attrs: mustprogress uwtable
define hidden noundef zeroext i1 @_ZN19maximize_ac_sharing8containsEP9func_declP4exprS3_(ptr noundef nonnull align 8 dereferenceable(112) %this, ptr noundef %f, ptr noundef %arg1, ptr noundef %arg2) #4 align 2 {
entry:
  %this.addr = alloca ptr, align 8
  %f.addr = alloca ptr, align 8
  %arg1.addr = alloca ptr, align 8
  %arg2.addr = alloca ptr, align 8
  %e = alloca %"struct.maximize_ac_sharing::entry", align 8
  %ref.tmp = alloca ptr, align 8
  store ptr %this, ptr %this.addr, align 8
  store ptr %f, ptr %f.addr, align 8
  store ptr %arg1, ptr %arg1.addr, align 8
  store ptr %arg2, ptr %arg2.addr, align 8
  %this1 = load ptr, ptr %this.addr, align 8
  %0 = load ptr, ptr %f.addr, align 8
  %1 = load ptr, ptr %arg1.addr, align 8
  %2 = load ptr, ptr %arg2.addr, align 8
  call void @_ZN19maximize_ac_sharing5entryC2EP9func_declP4exprS4_(ptr noundef nonnull align 8 dereferenceable(24) %e, ptr noundef %0, ptr noundef %1, ptr noundef %2)
  %m_cache = getelementptr inbounds %class.maximize_ac_sharing, ptr %this1, i32 0, i32 4
  store ptr %e, ptr %ref.tmp, align 8
  %call = call noundef zeroext i1 @_ZNK14core_hashtableI14ptr_hash_entryIN19maximize_ac_sharing5entryEE12obj_ptr_hashIS2_E8deref_eqIS2_EE8containsERKPS2_(ptr noundef nonnull align 8 dereferenceable(20) %m_cache, ptr noundef nonnull align 8 dereferenceable(8) %ref.tmp)
  ret i1 %call
}