; Function Attrs: mustprogress uwtable
define hidden noundef zeroext i1 @_ZN19maximize_ac_sharing8containsEP9func_declP4exprS3_(ptr noundef nonnull align 8 dereferenceable(112) %this, ptr noundef %f, ptr noundef %arg1, ptr noundef %arg2) local_unnamed_addr #3 align 2 {
entry:
  %e = alloca %"struct.maximize_ac_sharing::entry", align 8
  %ref.tmp = alloca ptr, align 8
  store ptr %f, ptr %e, align 8
  %m_arg1.i = getelementptr inbounds i8, ptr %e, i64 8
  store ptr %arg1, ptr %m_arg1.i, align 8
  %m_arg2.i = getelementptr inbounds i8, ptr %e, i64 16
  store ptr %arg2, ptr %m_arg2.i, align 8
  %tobool.i = icmp ne ptr %arg1, null
  %tobool2.i = icmp ne ptr %arg2, null
  %or.cond.i = and i1 %tobool.i, %tobool2.i
  br i1 %or.cond.i, label %land.lhs.true3.i, label %_ZN19maximize_ac_sharing5entryC2EP9func_declP4exprS4_.exit

land.lhs.true3.i:                                 ; preds = %entry
  %0 = load i32, ptr %arg1, align 4
  %1 = load i32, ptr %arg2, align 4
  %cmp.i = icmp ugt i32 %0, %1
  br i1 %cmp.i, label %if.then.i, label %_ZN19maximize_ac_sharing5entryC2EP9func_declP4exprS4_.exit

if.then.i:                                        ; preds = %land.lhs.true3.i
  store ptr %arg2, ptr %m_arg1.i, align 8
  store ptr %arg1, ptr %m_arg2.i, align 8
  br label %_ZN19maximize_ac_sharing5entryC2EP9func_declP4exprS4_.exit

_ZN19maximize_ac_sharing5entryC2EP9func_declP4exprS4_.exit: ; preds = %entry, %land.lhs.true3.i, %if.then.i
  %m_cache = getelementptr inbounds i8, ptr %this, i64 64
  store ptr %e, ptr %ref.tmp, align 8
  %call.i = call noundef ptr @_ZNK14core_hashtableI14ptr_hash_entryIN19maximize_ac_sharing5entryEE12obj_ptr_hashIS2_E8deref_eqIS2_EE9find_coreERKPS2_(ptr noundef nonnull align 8 dereferenceable(20) %m_cache, ptr noundef nonnull align 8 dereferenceable(8) %ref.tmp)
  %cmp.i1 = icmp ne ptr %call.i, null
  ret i1 %cmp.i1
}